target datalayout = "e-m:e-p270:32:32-p271:32:32-p272:64:64-i64:64-i128:128-f80:128-n8:16:32:64-S128"
target triple = "x86_64-pc-linux-gnu"

%"class.g2o::SparseOptimizer" = type <{ %"struct.g2o::OptimizableGraph", ptr, i8, [7 x i8], %"class.std::vector.25", %"class.std::vector.25", %"class.std::vector.30", ptr, %"class.std::vector.35", i8, [7 x i8] }>
%"struct.g2o::OptimizableGraph" = type { %"class.g2o::HyperGraph", %"class.std::map", i64, %"class.std::vector", %"class.g2o::ParameterContainer", %"class.g2o::JacobianWorkspace" }
%"class.g2o::HyperGraph" = type { ptr, %"class.std::unordered_map", %"class.std::set" }
%"class.std::unordered_map" = type { %"class.std::_Hashtable" }
%"class.std::_Hashtable" = type { ptr, i64, %"struct.std::__detail::_Hash_node_base", i64, %"struct.std::__detail::_Prime_rehash_policy", ptr }
%"struct.std::__detail::_Hash_node_base" = type { ptr }
%"struct.std::__detail::_Prime_rehash_policy" = type { float, i64 }
%"class.std::set" = type { %"class.std::_Rb_tree" }
%"class.std::_Rb_tree" = type { %"struct.std::_Rb_tree<g2o::HyperGraph::Edge *, g2o::HyperGraph::Edge *, std::_Identity<g2o::HyperGraph::Edge *>, std::less<g2o::HyperGraph::Edge *>>::_Rb_tree_impl" }
%"struct.std::_Rb_tree<g2o::HyperGraph::Edge *, g2o::HyperGraph::Edge *, std::_Identity<g2o::HyperGraph::Edge *>, std::less<g2o::HyperGraph::Edge *>>::_Rb_tree_impl" = type { [8 x i8], %"struct.std::_Rb_tree_header" }
%"struct.std::_Rb_tree_header" = type { %"struct.std::_Rb_tree_node_base", i64 }
%"struct.std::_Rb_tree_node_base" = type { i32, ptr, ptr, ptr }
%"class.std::map" = type { %"class.std::_Rb_tree.6" }
%"class.std::_Rb_tree.6" = type { %"struct.std::_Rb_tree<std::__cxx11::basic_string<char>, std::pair<const std::__cxx11::basic_string<char>, std::__cxx11::basic_string<char>>, std::_Select1st<std::pair<const std::__cxx11::basic_string<char>, std::__cxx11::basic_string<char>>>, std::less<std::__cxx11::basic_string<char>>>::_Rb_tree_impl" }
%"struct.std::_Rb_tree<std::__cxx11::basic_string<char>, std::pair<const std::__cxx11::basic_string<char>, std::__cxx11::basic_string<char>>, std::_Select1st<std::pair<const std::__cxx11::basic_string<char>, std::__cxx11::basic_string<char>>>, std::less<std::__cxx11::basic_string<char>>>::_Rb_tree_impl" = type { [8 x i8], %"struct.std::_Rb_tree_header" }
%"class.std::vector" = type { %"struct.std::_Vector_base" }
%"struct.std::_Vector_base" = type { %"struct.std::_Vector_base<std::set<g2o::HyperGraphAction *>, std::allocator<std::set<g2o::HyperGraphAction *>>>::_Vector_impl" }
%"struct.std::_Vector_base<std::set<g2o::HyperGraphAction *>, std::allocator<std::set<g2o::HyperGraphAction *>>>::_Vector_impl" = type { %"struct.std::_Vector_base<std::set<g2o::HyperGraphAction *>, std::allocator<std::set<g2o::HyperGraphAction *>>>::_Vector_impl_data" }
%"struct.std::_Vector_base<std::set<g2o::HyperGraphAction *>, std::allocator<std::set<g2o::HyperGraphAction *>>>::_Vector_impl_data" = type { ptr, ptr, ptr }
%"class.g2o::ParameterContainer" = type <{ ptr, %"class.std::map.14", i8, [7 x i8] }>
%"class.std::map.14" = type { %"class.std::_Rb_tree.15" }
%"class.std::_Rb_tree.15" = type { %"struct.std::_Rb_tree<int, std::pair<const int, g2o::Parameter *>, std::_Select1st<std::pair<const int, g2o::Parameter *>>, std::less<int>>::_Rb_tree_impl" }
%"struct.std::_Rb_tree<int, std::pair<const int, g2o::Parameter *>, std::_Select1st<std::pair<const int, g2o::Parameter *>>, std::less<int>>::_Rb_tree_impl" = type { [8 x i8], %"struct.std::_Rb_tree_header" }
%"class.g2o::JacobianWorkspace" = type { %"class.std::vector.20", i32, i32 }
%"class.std::vector.20" = type { %"struct.std::_Vector_base.21" }
%"struct.std::_Vector_base.21" = type { %"struct.std::_Vector_base<Eigen::Matrix<double, -1, 1>, std::allocator<Eigen::Matrix<double, -1, 1>>>::_Vector_impl" }
%"struct.std::_Vector_base<Eigen::Matrix<double, -1, 1>, std::allocator<Eigen::Matrix<double, -1, 1>>>::_Vector_impl" = type { %"struct.std::_Vector_base<Eigen::Matrix<double, -1, 1>, std::allocator<Eigen::Matrix<double, -1, 1>>>::_Vector_impl_data" }
%"struct.std::_Vector_base<Eigen::Matrix<double, -1, 1>, std::allocator<Eigen::Matrix<double, -1, 1>>>::_Vector_impl_data" = type { ptr, ptr, ptr }
%"class.std::vector.25" = type { %"struct.std::_Vector_base.26" }
%"struct.std::_Vector_base.26" = type { %"struct.std::_Vector_base<g2o::OptimizableGraph::Vertex *, std::allocator<g2o::OptimizableGraph::Vertex *>>::_Vector_impl" }
%"struct.std::_Vector_base<g2o::OptimizableGraph::Vertex *, std::allocator<g2o::OptimizableGraph::Vertex *>>::_Vector_impl" = type { %"struct.std::_Vector_base<g2o::OptimizableGraph::Vertex *, std::allocator<g2o::OptimizableGraph::Vertex *>>::_Vector_impl_data" }
%"struct.std::_Vector_base<g2o::OptimizableGraph::Vertex *, std::allocator<g2o::OptimizableGraph::Vertex *>>::_Vector_impl_data" = type { ptr, ptr, ptr }
%"class.std::vector.30" = type { %"struct.std::_Vector_base.31" }
%"struct.std::_Vector_base.31" = type { %"struct.std::_Vector_base<g2o::OptimizableGraph::Edge *, std::allocator<g2o::OptimizableGraph::Edge *>>::_Vector_impl" }
%"struct.std::_Vector_base<g2o::OptimizableGraph::Edge *, std::allocator<g2o::OptimizableGraph::Edge *>>::_Vector_impl" = type { %"struct.std::_Vector_base<g2o::OptimizableGraph::Edge *, std::allocator<g2o::OptimizableGraph::Edge *>>::_Vector_impl_data" }
%"struct.std::_Vector_base<g2o::OptimizableGraph::Edge *, std::allocator<g2o::OptimizableGraph::Edge *>>::_Vector_impl_data" = type { ptr, ptr, ptr }
%"class.std::vector.35" = type { %"struct.std::_Vector_base.36" }
%"struct.std::_Vector_base.36" = type { %"struct.std::_Vector_base<g2o::G2OBatchStatistics, std::allocator<g2o::G2OBatchStatistics>>::_Vector_impl" }
%"struct.std::_Vector_base<g2o::G2OBatchStatistics, std::allocator<g2o::G2OBatchStatistics>>::_Vector_impl" = type { %"struct.std::_Vector_base<g2o::G2OBatchStatistics, std::allocator<g2o::G2OBatchStatistics>>::_Vector_impl_data" }
%"struct.std::_Vector_base<g2o::G2OBatchStatistics, std::allocator<g2o::G2OBatchStatistics>>::_Vector_impl_data" = type { ptr, ptr, ptr }
%"class.__gnu_cxx::__normal_iterator.69" = type { ptr }

; Function Attrs: mustprogress nounwind uwtable
define linkonce_odr noundef nonnull align 8 dereferenceable(8) ptr @_ZNK9__gnu_cxx17__normal_iteratorIPPN3g2o16OptimizableGraph6VertexESt6vectorIS4_SaIS4_EEE4baseEv(ptr noundef nonnull align 8 dereferenceable(8) %0) #4 comdat align 2 {
  %2 = alloca ptr, align 8
  store ptr %0, ptr %2, align 8
  %3 = load ptr, ptr %2, align 8
  %4 = getelementptr inbounds nuw %"class.__gnu_cxx::__normal_iterator.69", ptr %3, i32 0, i32 0
  ret ptr %4
}

; Function Attrs: mustprogress nounwind uwtable
define linkonce_odr void @_ZN9__gnu_cxx17__normal_iteratorIPPN3g2o16OptimizableGraph6VertexESt6vectorIS4_SaIS4_EEEC2ERKS5_(ptr noundef nonnull align 8 dereferenceable(8) %0, ptr noundef nonnull align 8 dereferenceable(8) %1) unnamed_addr #4 comdat align 2 {
  %3 = alloca ptr, align 8
  %4 = alloca ptr, align 8
  store ptr %0, ptr %3, align 8
  store ptr %1, ptr %4, align 8
  %5 = load ptr, ptr %3, align 8
  %6 = getelementptr inbounds nuw %"class.__gnu_cxx::__normal_iterator.69", ptr %5, i32 0, i32 0
  %7 = load ptr, ptr %4, align 8
  %8 = load ptr, ptr %7, align 8
  store ptr %8, ptr %6, align 8
  ret void
}

; Function Attrs: mustprogress nounwind uwtable
define linkonce_odr noundef nonnull align 8 dereferenceable(8) ptr @_ZN9__gnu_cxx17__normal_iteratorIPPN3g2o16OptimizableGraph6VertexESt6vectorIS4_SaIS4_EEEppEv(ptr noundef nonnull align 8 dereferenceable(8) %0) #4 comdat align 2 {
  %2 = alloca ptr, align 8
  store ptr %0, ptr %2, align 8
  %3 = load ptr, ptr %2, align 8
  %4 = getelementptr inbounds nuw %"class.__gnu_cxx::__normal_iterator.69", ptr %3, i32 0, i32 0
  %5 = load ptr, ptr %4, align 8
  %6 = getelementptr inbounds ptr, ptr %5, i32 1
  store ptr %6, ptr %4, align 8
  ret ptr %3
}

; Function Attrs: mustprogress nounwind uwtable
define linkonce_odr noundef nonnull align 8 dereferenceable(8) ptr @_ZNK9__gnu_cxx17__normal_iteratorIPPN3g2o16OptimizableGraph6VertexESt6vectorIS4_SaIS4_EEEdeEv(ptr noundef nonnull align 8 dereferenceable(8) %0) #4 comdat align 2 {
  %2 = alloca ptr, align 8
  store ptr %0, ptr %2, align 8
  %3 = load ptr, ptr %2, align 8
  %4 = getelementptr inbounds nuw %"class.__gnu_cxx::__normal_iterator.69", ptr %3, i32 0, i32 0
  %5 = load ptr, ptr %4, align 8
  ret ptr %5
}

; Function Attrs: mustprogress nounwind uwtable
define linkonce_odr noundef zeroext i1 @_ZN9__gnu_cxxneIPPN3g2o16OptimizableGraph6VertexESt6vectorIS4_SaIS4_EEEEbRKNS_17__normal_iteratorIT_T0_EESE_(ptr noundef nonnull align 8 dereferenceable(8) %0, ptr noundef nonnull align 8 dereferenceable(8) %1) #4 comdat {
  %3 = alloca ptr, align 8
  %4 = alloca ptr, align 8
  store ptr %0, ptr %3, align 8
  store ptr %1, ptr %4, align 8
  %5 = load ptr, ptr %3, align 8
  %6 = call noundef nonnull align 8 dereferenceable(8) ptr @_ZNK9__gnu_cxx17__normal_iteratorIPPN3g2o16OptimizableGraph6VertexESt6vectorIS4_SaIS4_EEE4baseEv(ptr noundef nonnull align 8 dereferenceable(8) %5) #3
  %7 = load ptr, ptr %6, align 8
  %8 = load ptr, ptr %4, align 8
  %9 = call noundef nonnull align 8 dereferenceable(8) ptr @_ZNK9__gnu_cxx17__normal_iteratorIPPN3g2o16OptimizableGraph6VertexESt6vectorIS4_SaIS4_EEE4baseEv(ptr noundef nonnull align 8 dereferenceable(8) %8) #3
  %10 = load ptr, ptr %9, align 8
  %11 = icmp ne ptr %7, %10
  ret i1 %11
}

; Function Attrs: mustprogress nounwind uwtable
define linkonce_odr ptr @_ZNSt6vectorIPN3g2o16OptimizableGraph6VertexESaIS3_EE3endEv(ptr noundef nonnull align 8 dereferenceable(24) %0) #4 comdat align 2 {
  %2 = alloca %"class.__gnu_cxx::__normal_iterator.69", align 8
  %3 = alloca ptr, align 8
  store ptr %0, ptr %3, align 8
  %4 = load ptr, ptr %3, align 8
  %5 = getelementptr inbounds nuw %"struct.std::_Vector_base.26", ptr %4, i32 0, i32 0
  %6 = getelementptr inbounds nuw %"struct.std::_Vector_base<g2o::OptimizableGraph::Vertex *, std::allocator<g2o::OptimizableGraph::Vertex *>>::_Vector_impl_data", ptr %5, i32 0, i32 1
  call void @_ZN9__gnu_cxx17__normal_iteratorIPPN3g2o16OptimizableGraph6VertexESt6vectorIS4_SaIS4_EEEC2ERKS5_(ptr noundef nonnull align 8 dereferenceable(8) %2, ptr noundef nonnull align 8 dereferenceable(8) %6) #3
  %7 = getelementptr inbounds nuw %"class.__gnu_cxx::__normal_iterator.69", ptr %2, i32 0, i32 0
  %8 = load ptr, ptr %7, align 8
  ret ptr %8
}

; Function Attrs: mustprogress nounwind uwtable
define linkonce_odr ptr @_ZNSt6vectorIPN3g2o16OptimizableGraph6VertexESaIS3_EE5beginEv(ptr noundef nonnull align 8 dereferenceable(24) %0) #4 comdat align 2 {
  %2 = alloca %"class.__gnu_cxx::__normal_iterator.69", align 8
  %3 = alloca ptr, align 8
  store ptr %0, ptr %3, align 8
  %4 = load ptr, ptr %3, align 8
  %5 = getelementptr inbounds nuw %"struct.std::_Vector_base.26", ptr %4, i32 0, i32 0
  %6 = getelementptr inbounds nuw %"struct.std::_Vector_base<g2o::OptimizableGraph::Vertex *, std::allocator<g2o::OptimizableGraph::Vertex *>>::_Vector_impl_data", ptr %5, i32 0, i32 0
  call void @_ZN9__gnu_cxx17__normal_iteratorIPPN3g2o16OptimizableGraph6VertexESt6vectorIS4_SaIS4_EEEC2ERKS5_(ptr noundef nonnull align 8 dereferenceable(8) %2, ptr noundef nonnull align 8 dereferenceable(8) %6) #3
  %7 = getelementptr inbounds nuw %"class.__gnu_cxx::__normal_iterator.69", ptr %2, i32 0, i32 0
  %8 = load ptr, ptr %7, align 8
  ret ptr %8
}

; Function Attrs: mustprogress uwtable
define void @_ZN3g2o15SparseOptimizer10discardTopERSt6vectorIPNS_16OptimizableGraph6VertexESaIS4_EE(ptr noundef nonnull align 8 dereferenceable(409) %0, ptr noundef nonnull align 8 dereferenceable(24) %1) #5 align 2 {
  %3 = alloca ptr, align 8
  %4 = alloca ptr, align 8
  %5 = alloca %"class.__gnu_cxx::__normal_iterator.69", align 8
  %6 = alloca %"class.__gnu_cxx::__normal_iterator.69", align 8
  store ptr %0, ptr %3, align 8
  store ptr %1, ptr %4, align 8
  %7 = load ptr, ptr %4, align 8
  %8 = call ptr @_ZNSt6vectorIPN3g2o16OptimizableGraph6VertexESaIS3_EE5beginEv(ptr noundef nonnull align 8 dereferenceable(24) %7) #3
  %9 = getelementptr inbounds nuw %"class.__gnu_cxx::__normal_iterator.69", ptr %5, i32 0, i32 0
  store ptr %8, ptr %9, align 8
  br label %10

10:                                               ; preds = %21, %2
  %11 = load ptr, ptr %4, align 8
  %12 = call ptr @_ZNSt6vectorIPN3g2o16OptimizableGraph6VertexESaIS3_EE3endEv(ptr noundef nonnull align 8 dereferenceable(24) %11) #3
  %13 = getelementptr inbounds nuw %"class.__gnu_cxx::__normal_iterator.69", ptr %6, i32 0, i32 0
  store ptr %12, ptr %13, align 8
  %14 = call noundef zeroext i1 @_ZN9__gnu_cxxneIPPN3g2o16OptimizableGraph6VertexESt6vectorIS4_SaIS4_EEEEbRKNS_17__normal_iteratorIT_T0_EESE_(ptr noundef nonnull align 8 dereferenceable(8) %5, ptr noundef nonnull align 8 dereferenceable(8) %6) #3
  br i1 %14, label %15, label %23

15:                                               ; preds = %10
  %16 = call noundef nonnull align 8 dereferenceable(8) ptr @_ZNK9__gnu_cxx17__normal_iteratorIPPN3g2o16OptimizableGraph6VertexESt6vectorIS4_SaIS4_EEEdeEv(ptr noundef nonnull align 8 dereferenceable(8) %5) #3
  %17 = load ptr, ptr %16, align 8
  %18 = load ptr, ptr %17, align 8
  %19 = getelementptr inbounds ptr, ptr %18, i64 23
  %20 = load ptr, ptr %19, align 8
  call void %20(ptr noundef nonnull align 8 dereferenceable(128) %17)
  br label %21

21:                                               ; preds = %15
  %22 = call noundef nonnull align 8 dereferenceable(8) ptr @_ZN9__gnu_cxx17__normal_iteratorIPPN3g2o16OptimizableGraph6VertexESt6vectorIS4_SaIS4_EEEppEv(ptr noundef nonnull align 8 dereferenceable(8) %5) #3
  br label %10, !llvm.loop !34

23:                                               ; preds = %10
  ret void
}

; Function Attrs: mustprogress uwtable
define void @_ZN3g2o15SparseOptimizer10discardTopEv(ptr noundef nonnull align 8 dereferenceable(409) %0) unnamed_addr #5 align 2 {
  %2 = alloca ptr, align 8
  store ptr %0, ptr %2, align 8
  %3 = load ptr, ptr %2, align 8
  %4 = getelementptr inbounds nuw %"class.g2o::SparseOptimizer", ptr %3, i32 0, i32 5
  call void @_ZN3g2o15SparseOptimizer10discardTopERSt6vectorIPNS_16OptimizableGraph6VertexESaIS4_EE(ptr noundef nonnull align 8 dereferenceable(409) %3, ptr noundef nonnull align 8 dereferenceable(24) %4)
  ret void
}