; Function Attrs: mustprogress uwtable
define void @_ZN3g2o15SparseOptimizer10discardTopEv(ptr nocapture noundef nonnull readonly align 8 dereferenceable(409) %0) unnamed_addr #3 align 2 {
  %2 = getelementptr inbounds nuw i8, ptr %0, i64 328
  %3 = load ptr, ptr %2, align 8
  %4 = getelementptr inbounds i8, ptr %0, i64 336
  %5 = load ptr, ptr %4, align 8
  %.not5.i = icmp eq ptr %3, %5
  br i1 %.not5.i, label %_ZN3g2o15SparseOptimizer10discardTopERSt6vectorIPNS_16OptimizableGraph6VertexESaIS4_EE.exit, label %.lr.ph.i

.lr.ph.i:                                         ; preds = %1, %.lr.ph.i
  %.sroa.02.06.i = phi ptr [ %10, %.lr.ph.i ], [ %3, %1 ]
  %6 = load ptr, ptr %.sroa.02.06.i, align 8
  %7 = load ptr, ptr %6, align 8
  %8 = getelementptr inbounds i8, ptr %7, i64 184
  %9 = load ptr, ptr %8, align 8
  tail call void %9(ptr noundef nonnull align 8 dereferenceable(128) %6)
  %10 = getelementptr inbounds i8, ptr %.sroa.02.06.i, i64 8
  %11 = load ptr, ptr %4, align 8
  %.not.i = icmp eq ptr %10, %11
  br i1 %.not.i, label %_ZN3g2o15SparseOptimizer10discardTopERSt6vectorIPNS_16OptimizableGraph6VertexESaIS4_EE.exit, label %.lr.ph.i, !llvm.loop !44

_ZN3g2o15SparseOptimizer10discardTopERSt6vectorIPNS_16OptimizableGraph6VertexESaIS4_EE.exit: ; preds = %.lr.ph.i, %1
  ret void
}